; Function Attrs: mustprogress uwtable
define internal fastcc noundef ptr @_ZN4absl13cord_internal12_GLOBAL__N_110CreateTreeENS_4SpanIKPNS0_7CordRepEEE(ptr readonly %reps.coerce0, i64 %reps.coerce1) unnamed_addr #3 personality ptr @__gxx_personality_v0 {
entry:
  %0 = load ptr, ptr %reps.coerce0, align 8
  %tag.i.i = getelementptr inbounds i8, ptr %0, i64 12
  %1 = load i8, ptr %tag.i.i, align 4
  %or.cond.i.i = icmp ugt i8 %1, 4
  br i1 %or.cond.i.i, label %_ZN4absl13cord_internal12CordRepBtree3NewEPNS0_7CordRepE.exit.i, label %if.end.i.i

if.end.i.i:                                       ; preds = %entry
  %cmp6.i.i = icmp eq i8 %1, 1
  br i1 %cmp6.i.i, label %_ZN4absl13cord_internal10IsDataEdgeEPKNS0_7CordRepE.exit.i, label %if.end.i

_ZN4absl13cord_internal10IsDataEdgeEPKNS0_7CordRepE.exit.i: ; preds = %if.end.i.i
  %child.i.i = getelementptr inbounds i8, ptr %0, i64 24
  %2 = load ptr, ptr %child.i.i, align 8
  %tag9.phi.trans.insert.i.i = getelementptr inbounds i8, ptr %2, i64 12
  %.pre.i.i = load i8, ptr %tag9.phi.trans.insert.i.i, align 4
  %3 = icmp ugt i8 %.pre.i.i, 4
  br i1 %3, label %_ZN4absl13cord_internal12CordRepBtree3NewEPNS0_7CordRepE.exit.i, label %if.end.i

_ZN4absl13cord_internal12CordRepBtree3NewEPNS0_7CordRepE.exit.i: ; preds = %_ZN4absl13cord_internal10IsDataEdgeEPKNS0_7CordRepE.exit.i, %entry
  %call.i.i = tail call noalias noundef nonnull dereferenceable(64) ptr @_Znwm(i64 noundef 64) #30
  %refcount.i.i.i.i = getelementptr inbounds i8, ptr %call.i.i, i64 8
  store i32 2, ptr %refcount.i.i.i.i, align 4
  %4 = load i64, ptr %0, align 8
  store i64 %4, ptr %call.i.i, align 8
  %tag.i7.i.i = getelementptr inbounds i8, ptr %call.i.i, i64 12
  store <4 x i8> <i8 3, i8 0, i8 0, i8 1>, ptr %tag.i7.i.i, align 4
  %edges_.i.i = getelementptr inbounds i8, ptr %call.i.i, i64 16
  store ptr %0, ptr %edges_.i.i, align 8
  br label %_ZN4absl13cord_internal12CordRepBtree6CreateEPNS0_7CordRepE.exit

if.end.i:                                         ; preds = %_ZN4absl13cord_internal10IsDataEdgeEPKNS0_7CordRepE.exit.i, %if.end.i.i
  %call2.i = tail call noundef ptr @_ZN4absl13cord_internal12CordRepBtree10CreateSlowEPNS0_7CordRepE(ptr noundef nonnull %0)
  br label %_ZN4absl13cord_internal12CordRepBtree6CreateEPNS0_7CordRepE.exit

_ZN4absl13cord_internal12CordRepBtree6CreateEPNS0_7CordRepE.exit: ; preds = %_ZN4absl13cord_internal12CordRepBtree3NewEPNS0_7CordRepE.exit.i, %if.end.i
  %retval.0.i = phi ptr [ %call.i.i, %_ZN4absl13cord_internal12CordRepBtree3NewEPNS0_7CordRepE.exit.i ], [ %call2.i, %if.end.i ]
  %add.ptr.i.idx = shl nsw i64 %reps.coerce1, 3
  %add.ptr.i = getelementptr inbounds i8, ptr %reps.coerce0, i64 %add.ptr.i.idx
  %cmp.not17 = icmp eq i64 %reps.coerce1, 1
  br i1 %cmp.not17, label %while.end, label %while.body.preheader

while.body.preheader:                             ; preds = %_ZN4absl13cord_internal12CordRepBtree6CreateEPNS0_7CordRepE.exit
  %incdec.ptr16 = getelementptr inbounds i8, ptr %reps.coerce0, i64 8
  br label %while.body

while.body:                                       ; preds = %while.body.preheader, %_ZN4absl13cord_internal12CordRepBtree6AppendEPS1_PNS0_7CordRepE.exit
  %incdec.ptr19 = phi ptr [ %incdec.ptr, %_ZN4absl13cord_internal12CordRepBtree6AppendEPS1_PNS0_7CordRepE.exit ], [ %incdec.ptr16, %while.body.preheader ]
  %tree.018 = phi ptr [ %retval.0.i10, %_ZN4absl13cord_internal12CordRepBtree6AppendEPS1_PNS0_7CordRepE.exit ], [ %retval.0.i, %while.body.preheader ]
  %5 = load ptr, ptr %incdec.ptr19, align 8
  %tag.i.i4 = getelementptr inbounds i8, ptr %5, i64 12
  %6 = load i8, ptr %tag.i.i4, align 4
  %or.cond.i.i5 = icmp ugt i8 %6, 4
  br i1 %or.cond.i.i5, label %if.then.i, label %if.end.i.i6

if.end.i.i6:                                      ; preds = %while.body
  %cmp6.i.i7 = icmp eq i8 %6, 1
  br i1 %cmp6.i.i7, label %_ZN4absl13cord_internal10IsDataEdgeEPKNS0_7CordRepE.exit.i11, label %if.end.i8

_ZN4absl13cord_internal10IsDataEdgeEPKNS0_7CordRepE.exit.i11: ; preds = %if.end.i.i6
  %child.i.i12 = getelementptr inbounds i8, ptr %5, i64 24
  %7 = load ptr, ptr %child.i.i12, align 8
  %tag9.phi.trans.insert.i.i13 = getelementptr inbounds i8, ptr %7, i64 12
  %.pre.i.i14 = load i8, ptr %tag9.phi.trans.insert.i.i13, align 4
  %8 = icmp ugt i8 %.pre.i.i14, 4
  br i1 %8, label %if.then.i, label %if.end.i8

if.then.i:                                        ; preds = %_ZN4absl13cord_internal10IsDataEdgeEPKNS0_7CordRepE.exit.i11, %while.body
  %call1.i = tail call noundef ptr @_ZN4absl13cord_internal12CordRepBtree10AddCordRepILNS1_8EdgeTypeE1EEEPS1_S4_PNS0_7CordRepE(ptr noundef %tree.018, ptr noundef nonnull %5)
  br label %_ZN4absl13cord_internal12CordRepBtree6AppendEPS1_PNS0_7CordRepE.exit

if.end.i8:                                        ; preds = %_ZN4absl13cord_internal10IsDataEdgeEPKNS0_7CordRepE.exit.i11, %if.end.i.i6
  %call2.i9 = tail call noundef ptr @_ZN4absl13cord_internal12CordRepBtree10AppendSlowEPS1_PNS0_7CordRepE(ptr noundef %tree.018, ptr noundef nonnull %5)
  br label %_ZN4absl13cord_internal12CordRepBtree6AppendEPS1_PNS0_7CordRepE.exit

_ZN4absl13cord_internal12CordRepBtree6AppendEPS1_PNS0_7CordRepE.exit: ; preds = %if.then.i, %if.end.i8
  %retval.0.i10 = phi ptr [ %call1.i, %if.then.i ], [ %call2.i9, %if.end.i8 ]
  %incdec.ptr = getelementptr inbounds i8, ptr %incdec.ptr19, i64 8
  %cmp.not = icmp eq ptr %incdec.ptr, %add.ptr.i
  br i1 %cmp.not, label %while.end, label %while.body, !llvm.loop !783

while.end:                                        ; preds = %_ZN4absl13cord_internal12CordRepBtree6AppendEPS1_PNS0_7CordRepE.exit, %_ZN4absl13cord_internal12CordRepBtree6CreateEPNS0_7CordRepE.exit
  %tree.0.lcssa = phi ptr [ %retval.0.i, %_ZN4absl13cord_internal12CordRepBtree6CreateEPNS0_7CordRepE.exit ], [ %retval.0.i10, %_ZN4absl13cord_internal12CordRepBtree6AppendEPS1_PNS0_7CordRepE.exit ]
  ret ptr %tree.0.lcssa
}